; Function Attrs: mustprogress nofree norecurse nosync nounwind willreturn memory(argmem: read) uwtable
define hidden zeroext i1 @Curl_sasl_can_authenticate(ptr noundef readonly captures(none) %0, ptr noundef readonly captures(none) %1) local_unnamed_addr #6 {
  %3 = getelementptr inbounds nuw i8, ptr %1, i64 4992
  %4 = load ptr, ptr %3, align 8, !tbaa !93
  %.not = icmp eq ptr %4, null
  br i1 %.not, label %5, label %12

5:                                                ; preds = %2
  %6 = getelementptr inbounds nuw i8, ptr %0, i64 24
  %7 = load i16, ptr %6, align 8, !tbaa !89
  %8 = getelementptr inbounds nuw i8, ptr %0, i64 26
  %9 = load i16, ptr %8, align 2, !tbaa !17
  %10 = and i16 %7, 32
  %11 = and i16 %10, %9
  %.not4 = icmp ne i16 %11, 0
  br label %12

12:                                               ; preds = %5, %2
  %.0 = phi i1 [ true, %2 ], [ %.not4, %5 ]
  ret i1 %.0
}